target datalayout = "e-m:e-p270:32:32-p271:32:32-p272:64:64-i64:64-i128:128-f80:128-n8:16:32:64-S128"
target triple = "x86_64-pc-linux-gnu"

%class.CompilerDirectives = type { ptr, ptr, i32, ptr, ptr }
%class.DirectiveSet = type { ptr, ptr, %class.TriBoolArray, [4 x i8], %class.CHeapBitMap, %class.CHeapBitMap, [27 x i8], i8, i8, i8, i8, i8, i64, i64, i8, i8, i8, i8, i8, i8, i8, i8, i8, i64, ptr, ptr, i8, i8, i8, i8, i8, i8, i8, i64 }
%class.TriBoolArray = type { [27 x i32] }
%class.CHeapBitMap = type <{ %class.GrowableBitMap, i8, [7 x i8] }>
%class.GrowableBitMap = type { %class.BitMap }
%class.BitMap = type { ptr, i64 }
%class.AbstractCompiler = type { ptr, i32, i32, i8, [7 x i8], %class.CompilerStatistics }
%class.CompilerStatistics = type { %"class.CompilerStatistics::Data", %"class.CompilerStatistics::Data", i32, i32 }
%"class.CompilerStatistics::Data" = type { %class.elapsedTimer, i32, i32 }
%class.elapsedTimer = type <{ i64, i64, i8, [7 x i8] }>
%class.methodHandle = type { ptr, ptr }
%class.MutexLocker = type { %class.MutexLockerImpl }
%class.MutexLockerImpl = type { ptr }

@g_assert_poison = external global ptr, align 8
@.str.11 = private unnamed_addr constant [50 x i8] c"src/hotspot/share/compiler/compilerDirectives.cpp\00", align 1
@DirectivesStack_lock = external global ptr, align 8
@_ZN15DirectivesStack4_topE = external global ptr, align 8
@.str.19 = private unnamed_addr constant [35 x i8] c"guarantee(match != nullptr) failed\00", align 1
@.str.20 = private unnamed_addr constant [56 x i8] c"There should always be a default directive that matches\00", align 1

; Function Attrs: mustprogress nounwind uwtable
define linkonce_odr hidden noundef ptr @_ZNK12methodHandle3objEv(ptr noundef nonnull align 8 dereferenceable(16) %0) #1 comdat align 2 {
  %2 = alloca ptr, align 8
  store ptr %0, ptr %2, align 8
  %3 = load ptr, ptr %2, align 8
  %4 = getelementptr inbounds %class.methodHandle, ptr %3, i32 0, i32 0
  %5 = load ptr, ptr %4, align 8
  ret ptr %5
}

; Function Attrs: mustprogress nounwind uwtable
define linkonce_odr hidden void @_ZN15MutexLockerImplD2Ev(ptr noundef nonnull align 8 dereferenceable(8) %0) unnamed_addr #1 comdat align 2 {
  %2 = alloca ptr, align 8
  store ptr %0, ptr %2, align 8
  %3 = load ptr, ptr %2, align 8
  %4 = getelementptr inbounds %class.MutexLockerImpl, ptr %3, i32 0, i32 0
  %5 = load ptr, ptr %4, align 8
  %6 = icmp ne ptr %5, null
  br i1 %6, label %7, label %10

7:                                                ; preds = %1
  %8 = getelementptr inbounds %class.MutexLockerImpl, ptr %3, i32 0, i32 0
  %9 = load ptr, ptr %8, align 8
  call void @_ZN5Mutex6unlockEv(ptr noundef nonnull align 8 dereferenceable(104) %9)
  br label %10

10:                                               ; preds = %7, %1
  ret void
}

; Function Attrs: mustprogress nounwind uwtable
define linkonce_odr hidden noundef zeroext i1 @_ZNK16AbstractCompiler5is_c2Ev(ptr noundef nonnull align 8 dereferenceable(96) %0) #1 comdat align 2 {
  %2 = alloca ptr, align 8
  store ptr %0, ptr %2, align 8
  %3 = load ptr, ptr %2, align 8
  %4 = getelementptr inbounds %class.AbstractCompiler, ptr %3, i32 0, i32 3
  %5 = load i8, ptr %4, align 8
  %6 = zext i8 %5 to i32
  %7 = icmp eq i32 %6, 2
  ret i1 %7
}

; Function Attrs: mustprogress nounwind uwtable
define linkonce_odr hidden noundef zeroext i1 @_ZNK12methodHandleeqEP6Method(ptr noundef nonnull align 8 dereferenceable(16) %0, ptr noundef %1) #1 comdat align 2 {
  %3 = alloca ptr, align 8
  %4 = alloca ptr, align 8
  store ptr %0, ptr %3, align 8
  store ptr %1, ptr %4, align 8
  %5 = load ptr, ptr %3, align 8
  %6 = call noundef ptr @_ZNK12methodHandle3objEv(ptr noundef nonnull align 8 dereferenceable(16) %5)
  %7 = load ptr, ptr %4, align 8
  %8 = icmp eq ptr %6, %7
  ret i1 %8
}

; Function Attrs: mustprogress nounwind uwtable
define linkonce_odr hidden void @_ZN15MutexLockerImplC2EP5MutexNS0_18SafepointCheckFlagE(ptr noundef nonnull align 8 dereferenceable(8) %0, ptr noundef %1, i32 noundef %2) unnamed_addr #1 comdat align 2 {
  %4 = alloca ptr, align 8
  %5 = alloca ptr, align 8
  %6 = alloca i32, align 4
  %7 = alloca i8, align 1
  store ptr %0, ptr %4, align 8
  store ptr %1, ptr %5, align 8
  store i32 %2, ptr %6, align 4
  %8 = load ptr, ptr %4, align 8
  %9 = getelementptr inbounds %class.MutexLockerImpl, ptr %8, i32 0, i32 0
  %10 = load ptr, ptr %5, align 8
  store ptr %10, ptr %9, align 8
  %11 = load i32, ptr %6, align 4
  %12 = icmp eq i32 %11, 1
  %13 = zext i1 %12 to i8
  store i8 %13, ptr %7, align 1
  %14 = getelementptr inbounds %class.MutexLockerImpl, ptr %8, i32 0, i32 0
  %15 = load ptr, ptr %14, align 8
  %16 = icmp ne ptr %15, null
  br i1 %16, label %17, label %27

17:                                               ; preds = %3
  %18 = load i8, ptr %7, align 1
  %19 = trunc i8 %18 to i1
  br i1 %19, label %20, label %23

20:                                               ; preds = %17
  %21 = getelementptr inbounds %class.MutexLockerImpl, ptr %8, i32 0, i32 0
  %22 = load ptr, ptr %21, align 8
  call void @_ZN5Mutex28lock_without_safepoint_checkEv(ptr noundef nonnull align 8 dereferenceable(104) %22)
  br label %26

23:                                               ; preds = %17
  %24 = getelementptr inbounds %class.MutexLockerImpl, ptr %8, i32 0, i32 0
  %25 = load ptr, ptr %24, align 8
  call void @_ZN5Mutex4lockEv(ptr noundef nonnull align 8 dereferenceable(104) %25)
  br label %26

26:                                               ; preds = %23, %20
  br label %27

27:                                               ; preds = %26, %3
  ret void
}

; Function Attrs: mustprogress nounwind uwtable
define linkonce_odr hidden void @_ZN11MutexLockerD2Ev(ptr noundef nonnull align 8 dereferenceable(8) %0) unnamed_addr #1 comdat align 2 {
  %2 = alloca ptr, align 8
  store ptr %0, ptr %2, align 8
  %3 = load ptr, ptr %2, align 8
  call void @_ZN15MutexLockerImplD2Ev(ptr noundef nonnull align 8 dereferenceable(8) %3) #9
  ret void
}

; Function Attrs: mustprogress nounwind uwtable
define hidden noundef ptr @_ZN18CompilerDirectives4nextEv(ptr noundef nonnull align 8 dereferenceable(40) %0) #1 align 2 {
  %2 = alloca ptr, align 8
  store ptr %0, ptr %2, align 8
  %3 = load ptr, ptr %2, align 8
  %4 = getelementptr inbounds %class.CompilerDirectives, ptr %3, i32 0, i32 0
  %5 = load ptr, ptr %4, align 8
  ret ptr %5
}

; Function Attrs: mustprogress nounwind uwtable
define hidden void @_ZN18CompilerDirectives12inc_refcountEv(ptr noundef nonnull align 8 dereferenceable(40) %0) #1 align 2 {
  %2 = alloca ptr, align 8
  store ptr %0, ptr %2, align 8
  %3 = load ptr, ptr %2, align 8
  %4 = getelementptr inbounds %class.CompilerDirectives, ptr %3, i32 0, i32 2
  %5 = load i32, ptr %4, align 8
  %6 = add nsw i32 %5, 1
  store i32 %6, ptr %4, align 8
  ret void
}

; Function Attrs: mustprogress nounwind uwtable
define hidden noundef ptr @_ZN18CompilerDirectives7get_forEP16AbstractCompiler(ptr noundef nonnull align 8 dereferenceable(40) %0, ptr noundef %1) #1 align 2 {
  %3 = alloca ptr, align 8
  %4 = alloca ptr, align 8
  %5 = alloca ptr, align 8
  store ptr %0, ptr %4, align 8
  store ptr %1, ptr %5, align 8
  %6 = load ptr, ptr %4, align 8
  %7 = load ptr, ptr %5, align 8
  %8 = icmp eq ptr %7, null
  br i1 %8, label %9, label %12

9:                                                ; preds = %2
  %10 = getelementptr inbounds %class.CompilerDirectives, ptr %6, i32 0, i32 3
  %11 = load ptr, ptr %10, align 8
  store ptr %11, ptr %3, align 8
  br label %21

12:                                               ; preds = %2
  %13 = load ptr, ptr %5, align 8
  %14 = call noundef zeroext i1 @_ZNK16AbstractCompiler5is_c2Ev(ptr noundef nonnull align 8 dereferenceable(96) %13)
  br i1 %14, label %15, label %18

15:                                               ; preds = %12
  %16 = getelementptr inbounds %class.CompilerDirectives, ptr %6, i32 0, i32 4
  %17 = load ptr, ptr %16, align 8
  store ptr %17, ptr %3, align 8
  br label %21

18:                                               ; preds = %12
  %19 = getelementptr inbounds %class.CompilerDirectives, ptr %6, i32 0, i32 3
  %20 = load ptr, ptr %19, align 8
  store ptr %20, ptr %3, align 8
  br label %21

21:                                               ; preds = %18, %15, %9
  %22 = load ptr, ptr %3, align 8
  ret ptr %22
}

; Function Attrs: mustprogress nounwind uwtable
define hidden noundef zeroext i1 @_ZN18CompilerDirectives5matchERK12methodHandle(ptr noundef nonnull align 8 dereferenceable(40) %0, ptr noundef nonnull align 8 dereferenceable(16) %1) #1 align 2 {
  %3 = alloca i1, align 1
  %4 = alloca ptr, align 8
  %5 = alloca ptr, align 8
  store ptr %0, ptr %4, align 8
  store ptr %1, ptr %5, align 8
  %6 = load ptr, ptr %4, align 8
  %7 = call noundef zeroext i1 @_ZN18CompilerDirectives20is_default_directiveEv(ptr noundef nonnull align 8 dereferenceable(40) %6)
  br i1 %7, label %8, label %9

8:                                                ; preds = %2
  store i1 true, ptr %3, align 1
  br label %20

9:                                                ; preds = %2
  %10 = load ptr, ptr %5, align 8
  %11 = call noundef zeroext i1 @_ZNK12methodHandleeqEP6Method(ptr noundef nonnull align 8 dereferenceable(16) %10, ptr noundef null)
  br i1 %11, label %12, label %13

12:                                               ; preds = %9
  store i1 false, ptr %3, align 1
  br label %20

13:                                               ; preds = %9
  %14 = getelementptr inbounds %class.CompilerDirectives, ptr %6, i32 0, i32 1
  %15 = load ptr, ptr %14, align 8
  %16 = load ptr, ptr %5, align 8
  %17 = call noundef zeroext i1 @_ZN12BasicMatcher5matchERK12methodHandle(ptr noundef nonnull align 8 dereferenceable(40) %15, ptr noundef nonnull align 8 dereferenceable(16) %16)
  br i1 %17, label %18, label %19

18:                                               ; preds = %13
  store i1 true, ptr %3, align 1
  br label %20

19:                                               ; preds = %13
  store i1 false, ptr %3, align 1
  br label %20

20:                                               ; preds = %19, %18, %12, %8
  %21 = load i1, ptr %3, align 1
  ret i1 %21
}

; Function Attrs: mustprogress nounwind uwtable
define linkonce_odr hidden noundef zeroext i1 @_ZN18CompilerDirectives20is_default_directiveEv(ptr noundef nonnull align 8 dereferenceable(40) %0) #1 comdat align 2 {
  %2 = alloca ptr, align 8
  store ptr %0, ptr %2, align 8
  %3 = load ptr, ptr %2, align 8
  %4 = getelementptr inbounds %class.CompilerDirectives, ptr %3, i32 0, i32 0
  %5 = load ptr, ptr %4, align 8
  %6 = icmp eq ptr %5, null
  ret i1 %6
}

; Function Attrs: mustprogress nounwind uwtable
define linkonce_odr hidden void @_ZN11MutexLockerC2EP5MutexNS0_18SafepointCheckFlagE(ptr noundef nonnull align 8 dereferenceable(8) %0, ptr noundef %1, i32 noundef %2) unnamed_addr #1 comdat align 2 {
  %4 = alloca ptr, align 8
  %5 = alloca ptr, align 8
  %6 = alloca i32, align 4
  store ptr %0, ptr %4, align 8
  store ptr %1, ptr %5, align 8
  store i32 %2, ptr %6, align 4
  %7 = load ptr, ptr %4, align 8
  %8 = load ptr, ptr %5, align 8
  %9 = load i32, ptr %6, align 4
  call void @_ZN15MutexLockerImplC2EP5MutexNS0_18SafepointCheckFlagE(ptr noundef nonnull align 8 dereferenceable(8) %7, ptr noundef %8, i32 noundef %9)
  ret void
}

; Function Attrs: mustprogress nounwind uwtable
define hidden noundef ptr @_ZN15DirectivesStack20getMatchingDirectiveERK12methodHandleP16AbstractCompiler(ptr noundef nonnull align 8 dereferenceable(16) %0, ptr noundef %1) #1 align 2 {
  %3 = alloca ptr, align 8
  %4 = alloca ptr, align 8
  %5 = alloca ptr, align 8
  %6 = alloca %class.MutexLocker, align 8
  %7 = alloca ptr, align 8
  store ptr %0, ptr %3, align 8
  store ptr %1, ptr %4, align 8
  store ptr null, ptr %5, align 8
  %8 = load ptr, ptr @DirectivesStack_lock, align 8
  call void @_ZN11MutexLockerC2EP5MutexNS0_18SafepointCheckFlagE(ptr noundef nonnull align 8 dereferenceable(8) %6, ptr noundef %8, i32 noundef 1)
  %9 = load ptr, ptr @_ZN15DirectivesStack4_topE, align 8
  store ptr %9, ptr %7, align 8
  br label %10

10:                                               ; preds = %34, %2
  %11 = load ptr, ptr %7, align 8
  %12 = icmp ne ptr %11, null
  br i1 %12, label %13, label %37

13:                                               ; preds = %10
  %14 = load ptr, ptr %7, align 8
  %15 = call noundef zeroext i1 @_ZN18CompilerDirectives20is_default_directiveEv(ptr noundef nonnull align 8 dereferenceable(40) %14)
  br i1 %15, label %20, label %16

16:                                               ; preds = %13
  %17 = load ptr, ptr %7, align 8
  %18 = load ptr, ptr %3, align 8
  %19 = call noundef zeroext i1 @_ZN18CompilerDirectives5matchERK12methodHandle(ptr noundef nonnull align 8 dereferenceable(40) %17, ptr noundef nonnull align 8 dereferenceable(16) %18)
  br i1 %19, label %20, label %34

20:                                               ; preds = %16, %13
  %21 = load ptr, ptr %7, align 8
  %22 = load ptr, ptr %4, align 8
  %23 = call noundef ptr @_ZN18CompilerDirectives7get_forEP16AbstractCompiler(ptr noundef nonnull align 8 dereferenceable(40) %21, ptr noundef %22)
  store ptr %23, ptr %5, align 8
  %24 = load ptr, ptr %5, align 8
  %25 = getelementptr inbounds %class.DirectiveSet, ptr %24, i32 0, i32 7
  %26 = load i8, ptr %25, align 1
  %27 = trunc i8 %26 to i1
  br i1 %27, label %31, label %28

28:                                               ; preds = %20
  %29 = load ptr, ptr %7, align 8
  %30 = call noundef zeroext i1 @_ZN18CompilerDirectives20is_default_directiveEv(ptr noundef nonnull align 8 dereferenceable(40) %29)
  br i1 %30, label %31, label %33

31:                                               ; preds = %28, %20
  %32 = load ptr, ptr %7, align 8
  call void @_ZN18CompilerDirectives12inc_refcountEv(ptr noundef nonnull align 8 dereferenceable(40) %32)
  br label %37

33:                                               ; preds = %28
  br label %34

34:                                               ; preds = %33, %16
  %35 = load ptr, ptr %7, align 8
  %36 = call noundef ptr @_ZN18CompilerDirectives4nextEv(ptr noundef nonnull align 8 dereferenceable(40) %35)
  store ptr %36, ptr %7, align 8
  br label %10, !llvm.loop !23

37:                                               ; preds = %31, %10
  call void @_ZN11MutexLockerD2Ev(ptr noundef nonnull align 8 dereferenceable(8) %6) #9
  br label %38

38:                                               ; preds = %37
  %39 = load ptr, ptr %5, align 8
  %40 = icmp ne ptr %39, null
  br i1 %40, label %43, label %41

41:                                               ; preds = %38
  %42 = load ptr, ptr @g_assert_poison, align 8
  store i8 88, ptr %42, align 1
  call void (ptr, i32, ptr, ptr, ...) @_Z15report_vm_errorPKciS0_S0_z(ptr noundef @.str.11, i32 noundef 773, ptr noundef @.str.19, ptr noundef @.str.20) #10
  unreachable

43:                                               ; preds = %38
  br label %44

44:                                               ; preds = %43
  %45 = load ptr, ptr %5, align 8
  %46 = load ptr, ptr %3, align 8
  %47 = call noundef ptr @_ZN12DirectiveSet33compilecommand_compatibility_initERK12methodHandle(ptr noundef nonnull align 8 dereferenceable(280) %45, ptr noundef nonnull align 8 dereferenceable(16) %46)
  ret ptr %47
}