; Function Attrs: mustprogress nounwind uwtable
define hidden noundef ptr @_ZN15DirectivesStack20getMatchingDirectiveERK12methodHandleP16AbstractCompiler(ptr noundef nonnull align 8 dereferenceable(16) %0, ptr noundef readonly %1) local_unnamed_addr #0 align 2 {
  %3 = load ptr, ptr @DirectivesStack_lock, align 8
  %.not.i.i = icmp eq ptr %3, null
  br i1 %.not.i.i, label %_ZN11MutexLockerC2EP5MutexNS0_18SafepointCheckFlagE.exit, label %4

4:                                                ; preds = %2
  tail call void @_ZN5Mutex28lock_without_safepoint_checkEv(ptr noundef nonnull align 8 dereferenceable(104) %3) #14
  br label %_ZN11MutexLockerC2EP5MutexNS0_18SafepointCheckFlagE.exit

_ZN11MutexLockerC2EP5MutexNS0_18SafepointCheckFlagE.exit: ; preds = %2, %4
  %.020 = load ptr, ptr @_ZN15DirectivesStack4_topE, align 8
  %.not21 = icmp eq ptr %.020, null
  br i1 %.not21, label %.loopexit, label %.lr.ph

.lr.ph:                                           ; preds = %_ZN11MutexLockerC2EP5MutexNS0_18SafepointCheckFlagE.exit
  %5 = icmp eq ptr %1, null
  %6 = getelementptr inbounds i8, ptr %1, i64 16
  br i1 %5, label %.lr.ph.split.us, label %.lr.ph.split

.lr.ph.split.us:                                  ; preds = %.lr.ph, %_ZN18CompilerDirectives5matchERK12methodHandle.exit.thread.us
  %.023.us = phi ptr [ %.0.us, %_ZN18CompilerDirectives5matchERK12methodHandle.exit.thread.us ], [ %.020, %.lr.ph ]
  %.01322.us = phi ptr [ %.1.us, %_ZN18CompilerDirectives5matchERK12methodHandle.exit.thread.us ], [ null, %.lr.ph ]
  %7 = load ptr, ptr %.023.us, align 8
  %8 = icmp eq ptr %7, null
  br i1 %8, label %_ZN18CompilerDirectives7get_forEP16AbstractCompiler.exit.us, label %9

9:                                                ; preds = %.lr.ph.split.us
  %10 = load ptr, ptr %0, align 8
  %11 = icmp eq ptr %10, null
  br i1 %11, label %_ZN18CompilerDirectives5matchERK12methodHandle.exit.thread.us, label %_ZN18CompilerDirectives5matchERK12methodHandle.exit.us

_ZN18CompilerDirectives5matchERK12methodHandle.exit.us: ; preds = %9
  %12 = getelementptr inbounds i8, ptr %.023.us, i64 8
  %13 = load ptr, ptr %12, align 8
  %14 = tail call noundef zeroext i1 @_ZN12BasicMatcher5matchERK12methodHandle(ptr noundef nonnull align 8 dereferenceable(40) %13, ptr noundef nonnull align 8 dereferenceable(16) %0) #14
  br i1 %14, label %_ZN18CompilerDirectives7get_forEP16AbstractCompiler.exit.us, label %_ZN18CompilerDirectives5matchERK12methodHandle.exit.us._ZN18CompilerDirectives5matchERK12methodHandle.exit.thread.us_crit_edge

_ZN18CompilerDirectives5matchERK12methodHandle.exit.us._ZN18CompilerDirectives5matchERK12methodHandle.exit.thread.us_crit_edge: ; preds = %_ZN18CompilerDirectives5matchERK12methodHandle.exit.us
  %.0.us.pre = load ptr, ptr %.023.us, align 8
  br label %_ZN18CompilerDirectives5matchERK12methodHandle.exit.thread.us

_ZN18CompilerDirectives7get_forEP16AbstractCompiler.exit.us: ; preds = %_ZN18CompilerDirectives5matchERK12methodHandle.exit.us, %.lr.ph.split.us
  %15 = getelementptr inbounds i8, ptr %.023.us, i64 24
  %.0.i15.us = load ptr, ptr %15, align 8
  %16 = getelementptr inbounds i8, ptr %.0.i15.us, i64 203
  %17 = load i8, ptr %16, align 1
  %18 = trunc i8 %17 to i1
  br i1 %18, label %.split.us, label %19

19:                                               ; preds = %_ZN18CompilerDirectives7get_forEP16AbstractCompiler.exit.us
  %20 = load ptr, ptr %.023.us, align 8
  %21 = icmp eq ptr %20, null
  br i1 %21, label %.split.us, label %_ZN18CompilerDirectives5matchERK12methodHandle.exit.thread.us

_ZN18CompilerDirectives5matchERK12methodHandle.exit.thread.us: ; preds = %_ZN18CompilerDirectives5matchERK12methodHandle.exit.us._ZN18CompilerDirectives5matchERK12methodHandle.exit.thread.us_crit_edge, %19, %9
  %.0.us = phi ptr [ %20, %19 ], [ %.0.us.pre, %_ZN18CompilerDirectives5matchERK12methodHandle.exit.us._ZN18CompilerDirectives5matchERK12methodHandle.exit.thread.us_crit_edge ], [ %7, %9 ]
  %.1.us = phi ptr [ %.0.i15.us, %19 ], [ %.01322.us, %_ZN18CompilerDirectives5matchERK12methodHandle.exit.us._ZN18CompilerDirectives5matchERK12methodHandle.exit.thread.us_crit_edge ], [ %.01322.us, %9 ]
  %.not.us = icmp eq ptr %.0.us, null
  br i1 %.not.us, label %.loopexit, label %.lr.ph.split.us, !llvm.loop !28

.lr.ph.split:                                     ; preds = %.lr.ph, %_ZN18CompilerDirectives5matchERK12methodHandle.exit.thread
  %.023 = phi ptr [ %.0, %_ZN18CompilerDirectives5matchERK12methodHandle.exit.thread ], [ %.020, %.lr.ph ]
  %.01322 = phi ptr [ %.1, %_ZN18CompilerDirectives5matchERK12methodHandle.exit.thread ], [ null, %.lr.ph ]
  %22 = load ptr, ptr %.023, align 8
  %23 = icmp eq ptr %22, null
  br i1 %23, label %_ZN18CompilerDirectives7get_forEP16AbstractCompiler.exit, label %24

24:                                               ; preds = %.lr.ph.split
  %25 = load ptr, ptr %0, align 8
  %26 = icmp eq ptr %25, null
  br i1 %26, label %_ZN18CompilerDirectives5matchERK12methodHandle.exit.thread, label %_ZN18CompilerDirectives5matchERK12methodHandle.exit

_ZN18CompilerDirectives5matchERK12methodHandle.exit: ; preds = %24
  %27 = getelementptr inbounds i8, ptr %.023, i64 8
  %28 = load ptr, ptr %27, align 8
  %29 = tail call noundef zeroext i1 @_ZN12BasicMatcher5matchERK12methodHandle(ptr noundef nonnull align 8 dereferenceable(40) %28, ptr noundef nonnull align 8 dereferenceable(16) %0) #14
  br i1 %29, label %_ZN18CompilerDirectives7get_forEP16AbstractCompiler.exit, label %_ZN18CompilerDirectives5matchERK12methodHandle.exit._ZN18CompilerDirectives5matchERK12methodHandle.exit.thread_crit_edge

_ZN18CompilerDirectives5matchERK12methodHandle.exit._ZN18CompilerDirectives5matchERK12methodHandle.exit.thread_crit_edge: ; preds = %_ZN18CompilerDirectives5matchERK12methodHandle.exit
  %.0.pre = load ptr, ptr %.023, align 8
  br label %_ZN18CompilerDirectives5matchERK12methodHandle.exit.thread

_ZN18CompilerDirectives7get_forEP16AbstractCompiler.exit: ; preds = %_ZN18CompilerDirectives5matchERK12methodHandle.exit, %.lr.ph.split
  %30 = load i8, ptr %6, align 8
  %31 = icmp eq i8 %30, 2
  %..i = select i1 %31, i64 32, i64 24
  %32 = getelementptr inbounds i8, ptr %.023, i64 %..i
  %.0.i15 = load ptr, ptr %32, align 8
  %33 = getelementptr inbounds i8, ptr %.0.i15, i64 203
  %34 = load i8, ptr %33, align 1
  %35 = trunc i8 %34 to i1
  br i1 %35, label %.split.us, label %36

36:                                               ; preds = %_ZN18CompilerDirectives7get_forEP16AbstractCompiler.exit
  %37 = load ptr, ptr %.023, align 8
  %38 = icmp eq ptr %37, null
  br i1 %38, label %.split.us, label %_ZN18CompilerDirectives5matchERK12methodHandle.exit.thread

.split.us:                                        ; preds = %_ZN18CompilerDirectives7get_forEP16AbstractCompiler.exit, %36, %_ZN18CompilerDirectives7get_forEP16AbstractCompiler.exit.us, %19
  %.us-phi = phi ptr [ %.0.i15.us, %19 ], [ %.0.i15.us, %_ZN18CompilerDirectives7get_forEP16AbstractCompiler.exit.us ], [ %.0.i15, %36 ], [ %.0.i15, %_ZN18CompilerDirectives7get_forEP16AbstractCompiler.exit ]
  %.us-phi24 = phi ptr [ %.023.us, %19 ], [ %.023.us, %_ZN18CompilerDirectives7get_forEP16AbstractCompiler.exit.us ], [ %.023, %36 ], [ %.023, %_ZN18CompilerDirectives7get_forEP16AbstractCompiler.exit ]
  %39 = getelementptr inbounds i8, ptr %.us-phi24, i64 16
  %40 = load i32, ptr %39, align 8
  %41 = add nsw i32 %40, 1
  store i32 %41, ptr %39, align 8
  br label %.loopexit

_ZN18CompilerDirectives5matchERK12methodHandle.exit.thread: ; preds = %_ZN18CompilerDirectives5matchERK12methodHandle.exit._ZN18CompilerDirectives5matchERK12methodHandle.exit.thread_crit_edge, %24, %36
  %.0 = phi ptr [ %37, %36 ], [ %.0.pre, %_ZN18CompilerDirectives5matchERK12methodHandle.exit._ZN18CompilerDirectives5matchERK12methodHandle.exit.thread_crit_edge ], [ %22, %24 ]
  %.1 = phi ptr [ %.0.i15, %36 ], [ %.01322, %_ZN18CompilerDirectives5matchERK12methodHandle.exit._ZN18CompilerDirectives5matchERK12methodHandle.exit.thread_crit_edge ], [ %.01322, %24 ]
  %.not = icmp eq ptr %.0, null
  br i1 %.not, label %.loopexit, label %.lr.ph.split, !llvm.loop !28

.loopexit:                                        ; preds = %_ZN18CompilerDirectives5matchERK12methodHandle.exit.thread, %_ZN18CompilerDirectives5matchERK12methodHandle.exit.thread.us, %_ZN11MutexLockerC2EP5MutexNS0_18SafepointCheckFlagE.exit, %.split.us
  %.2 = phi ptr [ %.us-phi, %.split.us ], [ null, %_ZN11MutexLockerC2EP5MutexNS0_18SafepointCheckFlagE.exit ], [ %.1.us, %_ZN18CompilerDirectives5matchERK12methodHandle.exit.thread.us ], [ %.1, %_ZN18CompilerDirectives5matchERK12methodHandle.exit.thread ]
  br i1 %.not.i.i, label %_ZN11MutexLockerD2Ev.exit, label %42

42:                                               ; preds = %.loopexit
  tail call void @_ZN5Mutex6unlockEv(ptr noundef nonnull align 8 dereferenceable(104) %3) #14
  br label %_ZN11MutexLockerD2Ev.exit

_ZN11MutexLockerD2Ev.exit:                        ; preds = %.loopexit, %42
  %.not14 = icmp eq ptr %.2, null
  br i1 %.not14, label %43, label %45

43:                                               ; preds = %_ZN11MutexLockerD2Ev.exit
  %44 = load ptr, ptr @g_assert_poison, align 8
  store i8 88, ptr %44, align 1
  tail call void (ptr, i32, ptr, ptr, ...) @_Z15report_vm_errorPKciS0_S0_z(ptr noundef nonnull @.str.11, i32 noundef 773, ptr noundef nonnull @.str.19, ptr noundef nonnull @.str.20) #15
  unreachable

45:                                               ; preds = %_ZN11MutexLockerD2Ev.exit
  %46 = tail call noundef ptr @_ZN12DirectiveSet33compilecommand_compatibility_initERK12methodHandle(ptr noundef nonnull align 8 dereferenceable(280) %.2, ptr noundef nonnull align 8 dereferenceable(16) %0)
  ret ptr %46
}